; Function Attrs: mustprogress uwtable
define ptr @grpc_raw_compressed_byte_buffer_create(ptr nocapture noundef readonly %slices, i64 noundef %nslices, i32 noundef %compression) local_unnamed_addr #3 {
entry:
  %call = tail call ptr @gpr_malloc(i64 noundef 288)
  %type = getelementptr inbounds i8, ptr %call, i64 8
  store i32 0, ptr %type, align 8
  %data = getelementptr inbounds i8, ptr %call, i64 16
  store i32 %compression, ptr %data, align 8
  %slice_buffer = getelementptr inbounds i8, ptr %call, i64 24
  tail call void @grpc_slice_buffer_init(ptr noundef nonnull %slice_buffer)
  %cmp9.not = icmp eq i64 %nslices, 0
  br i1 %cmp9.not, label %for.end, label %for.body

for.body:                                         ; preds = %entry, %_ZN9grpc_core9CSliceRefERK10grpc_sliceNS_13DebugLocationE.exit
  %i.010 = phi i64 [ %inc, %_ZN9grpc_core9CSliceRefERK10grpc_sliceNS_13DebugLocationE.exit ], [ 0, %entry ]
  %arrayidx = getelementptr inbounds %struct.grpc_slice, ptr %slices, i64 %i.010
  %0 = load ptr, ptr %arrayidx, align 8
  %cmp.i = icmp ugt ptr %0, inttoptr (i64 1 to ptr)
  br i1 %cmp.i, label %if.then.i, label %_ZN9grpc_core9CSliceRefERK10grpc_sliceNS_13DebugLocationE.exit

if.then.i:                                        ; preds = %for.body
  %1 = atomicrmw add ptr %0, i64 1 monotonic, align 8
  br label %_ZN9grpc_core9CSliceRefERK10grpc_sliceNS_13DebugLocationE.exit

_ZN9grpc_core9CSliceRefERK10grpc_sliceNS_13DebugLocationE.exit: ; preds = %for.body, %if.then.i
  tail call void @grpc_slice_buffer_add(ptr noundef nonnull %slice_buffer, ptr noundef nonnull byval(%struct.grpc_slice) align 8 %arrayidx)
  %inc = add nuw i64 %i.010, 1
  %exitcond.not = icmp eq i64 %inc, %nslices
  br i1 %exitcond.not, label %for.end, label %for.body, !llvm.loop !4

for.end:                                          ; preds = %_ZN9grpc_core9CSliceRefERK10grpc_sliceNS_13DebugLocationE.exit, %entry
  ret ptr %call
}